target datalayout = "e-m:e-p270:32:32-p271:32:32-p272:64:64-i64:64-i128:128-f80:128-n8:16:32:64-S128"
target triple = "x86_64-unknown-linux-gnu"

%"struct.std::atomic.1" = type { %"struct.std::__atomic_base.0" }
%"struct.std::__atomic_base.0" = type { ptr }
%"class.absl::cord_internal::CordzInfo" = type <{ %"class.absl::cord_internal::CordzHandle", ptr, %"struct.std::atomic.1", %"struct.std::atomic.1", %"class.absl::Mutex", ptr, [64 x ptr], [64 x ptr], i64, i64, i32, i32, %"class.absl::cord_internal::CordzUpdateTracker", %"class.absl::Time", [4 x i8] }>
%"class.absl::cord_internal::CordzHandle" = type { ptr, i8, ptr, ptr }
%"class.absl::Mutex" = type { %"struct.std::atomic.2" }
%"struct.std::atomic.2" = type { %"struct.std::__atomic_base.3" }
%"struct.std::__atomic_base.3" = type { i64 }
%"class.absl::cord_internal::CordzUpdateTracker" = type { [25 x %"class.absl::cord_internal::CordzUpdateTracker::Counter"] }
%"class.absl::cord_internal::CordzUpdateTracker::Counter" = type { %"struct.std::atomic.2" }
%"class.absl::Time" = type { %"class.absl::Duration" }
%"class.absl::Duration" = type { %"class.absl::Duration::HiRep", i32 }
%"class.absl::Duration::HiRep" = type { i32, i32 }
%"struct.absl::cord_internal::CordRep" = type { i64, %"class.absl::cord_internal::RefcountAndFlags", i8, [3 x i8] }
%"class.absl::cord_internal::RefcountAndFlags" = type { %"struct.std::atomic.4" }
%"struct.std::atomic.4" = type { %"struct.std::__atomic_base.5" }
%"struct.std::__atomic_base.5" = type { i32 }

@_ZTVN4absl13cord_internal9CordzInfoE = dso_local unnamed_addr constant { [4 x ptr] } { [4 x ptr] [ptr null, ptr @_ZTIN4absl13cord_internal9CordzInfoE, ptr @_ZN4absl13cord_internal9CordzInfoD1Ev, ptr @_ZN4absl13cord_internal9CordzInfoD0Ev] }, align 8

; Function Attrs: mustprogress nounwind uwtable
define linkonce_odr dso_local noundef zeroext i1 @_ZN4absl13cord_internal16RefcountAndFlags27DecrementExpectHighRefcountEv(ptr noundef nonnull align 4 dereferenceable(4) %this) #0 comdat align 2 {
entry:
  %this.addr.i = alloca ptr, align 8
  %__i.addr.i = alloca i32, align 4
  %__m.addr.i = alloca i32, align 4
  %.atomictmp.i = alloca i32, align 4
  %atomic-temp.i = alloca i32, align 4
  %this.addr = alloca ptr, align 8
  %refcount = alloca i32, align 4
  store ptr %this, ptr %this.addr, align 8
  %this1 = load ptr, ptr %this.addr, align 8
  %count_ = getelementptr inbounds %"class.absl::cord_internal::RefcountAndFlags", ptr %this1, i32 0, i32 0
  store ptr %count_, ptr %this.addr.i, align 8
  store i32 2, ptr %__i.addr.i, align 4
  store i32 4, ptr %__m.addr.i, align 4
  %this1.i = load ptr, ptr %this.addr.i, align 8
  %0 = load i32, ptr %__m.addr.i, align 4
  %1 = load i32, ptr %__i.addr.i, align 4
  store i32 %1, ptr %.atomictmp.i, align 4
  switch i32 %0, label %monotonic.i [
    i32 1, label %acquire.i
    i32 2, label %acquire.i
    i32 3, label %release.i
    i32 4, label %acqrel.i
    i32 5, label %seqcst.i
  ]

monotonic.i:                                      ; preds = %entry
  %2 = load i32, ptr %.atomictmp.i, align 4
  %3 = atomicrmw sub ptr %this1.i, i32 %2 monotonic, align 4
  store i32 %3, ptr %atomic-temp.i, align 4
  br label %_ZNSt13__atomic_baseIiE9fetch_subEiSt12memory_order.exit

acquire.i:                                        ; preds = %entry, %entry
  %4 = load i32, ptr %.atomictmp.i, align 4
  %5 = atomicrmw sub ptr %this1.i, i32 %4 acquire, align 4
  store i32 %5, ptr %atomic-temp.i, align 4
  br label %_ZNSt13__atomic_baseIiE9fetch_subEiSt12memory_order.exit

release.i:                                        ; preds = %entry
  %6 = load i32, ptr %.atomictmp.i, align 4
  %7 = atomicrmw sub ptr %this1.i, i32 %6 release, align 4
  store i32 %7, ptr %atomic-temp.i, align 4
  br label %_ZNSt13__atomic_baseIiE9fetch_subEiSt12memory_order.exit

acqrel.i:                                         ; preds = %entry
  %8 = load i32, ptr %.atomictmp.i, align 4
  %9 = atomicrmw sub ptr %this1.i, i32 %8 acq_rel, align 4
  store i32 %9, ptr %atomic-temp.i, align 4
  br label %_ZNSt13__atomic_baseIiE9fetch_subEiSt12memory_order.exit

seqcst.i:                                         ; preds = %entry
  %10 = load i32, ptr %.atomictmp.i, align 4
  %11 = atomicrmw sub ptr %this1.i, i32 %10 seq_cst, align 4
  store i32 %11, ptr %atomic-temp.i, align 4
  br label %_ZNSt13__atomic_baseIiE9fetch_subEiSt12memory_order.exit

_ZNSt13__atomic_baseIiE9fetch_subEiSt12memory_order.exit: ; preds = %seqcst.i, %acqrel.i, %release.i, %acquire.i, %monotonic.i
  %12 = load i32, ptr %atomic-temp.i, align 4
  store i32 %12, ptr %refcount, align 4
  %13 = load i32, ptr %refcount, align 4
  %cmp = icmp ne i32 %13, 2
  ret i1 %cmp
}

; Function Attrs: mustprogress uwtable
define linkonce_odr dso_local void @_ZN4absl13cord_internal7CordRep5UnrefEPS1_(ptr noundef %rep) #1 comdat align 2 {
entry:
  %rep.addr = alloca ptr, align 8
  store ptr %rep, ptr %rep.addr, align 8
  %0 = load ptr, ptr %rep.addr, align 8
  %refcount = getelementptr inbounds %"struct.absl::cord_internal::CordRep", ptr %0, i32 0, i32 1
  %call = call noundef zeroext i1 @_ZN4absl13cord_internal16RefcountAndFlags27DecrementExpectHighRefcountEv(ptr noundef nonnull align 4 dereferenceable(4) %refcount)
  %lnot = xor i1 %call, true
  br i1 %lnot, label %if.then, label %if.end

if.then:                                          ; preds = %entry
  %1 = load ptr, ptr %rep.addr, align 8
  call void @_ZN4absl13cord_internal7CordRep7DestroyEPS1_(ptr noundef %1)
  br label %if.end

if.end:                                           ; preds = %if.then, %entry
  ret void
}

; Function Attrs: mustprogress nounwind uwtable
define dso_local void @_ZN4absl13cord_internal9CordzInfoD2Ev(ptr noundef nonnull align 8 dereferenceable(1332) %this) unnamed_addr #0 align 2 personality ptr @__gxx_personality_v0 {
entry:
  %this.addr.i3 = alloca ptr, align 8
  %this.addr.i = alloca ptr, align 8
  %this.addr = alloca ptr, align 8
  store ptr %this, ptr %this.addr, align 8
  %this1 = load ptr, ptr %this.addr, align 8
  store ptr getelementptr inbounds ({ [4 x ptr] }, ptr @_ZTVN4absl13cord_internal9CordzInfoE, i32 0, i32 0, i32 2), ptr %this1, align 8
  %rep_ = getelementptr inbounds %"class.absl::cord_internal::CordzInfo", ptr %this1, i32 0, i32 5
  %0 = load ptr, ptr %rep_, align 8
  %tobool = icmp ne ptr %0, null
  br i1 %tobool, label %if.then, label %if.end

if.then:                                          ; preds = %entry
  %rep_2 = getelementptr inbounds %"class.absl::cord_internal::CordzInfo", ptr %this1, i32 0, i32 5
  %1 = load ptr, ptr %rep_2, align 8
  invoke void @_ZN4absl13cord_internal7CordRep5UnrefEPS1_(ptr noundef %1)
          to label %invoke.cont unwind label %terminate.lpad

invoke.cont:                                      ; preds = %if.then
  br label %if.end

if.end:                                           ; preds = %invoke.cont, %entry
  %mutex_ = getelementptr inbounds %"class.absl::cord_internal::CordzInfo", ptr %this1, i32 0, i32 4
  store ptr %mutex_, ptr %this.addr.i, align 8
  %this1.i = load ptr, ptr %this.addr.i, align 8
  store ptr %this1.i, ptr %this.addr.i3, align 8
  br label %_ZN4absl5MutexD2Ev.exit

terminate.lpad.i:                                 ; No predecessors!
  %2 = landingpad { ptr, i32 }
          catch ptr null
  %3 = extractvalue { ptr, i32 } %2, 0
  call void @__clang_call_terminate(ptr %3) #13
  unreachable

_ZN4absl5MutexD2Ev.exit:                          ; preds = %if.end
  call void @_ZN4absl13cord_internal11CordzHandleD2Ev(ptr noundef nonnull align 8 dereferenceable(32) %this1) #10
  ret void

terminate.lpad:                                   ; preds = %if.then
  %4 = landingpad { ptr, i32 }
          catch ptr null
  %5 = extractvalue { ptr, i32 } %4, 0
  call void @__clang_call_terminate(ptr %5) #13
  unreachable
}