; Function Attrs: mustprogress nounwind uwtable
define dso_local void @_ZN4absl13cord_internal9CordzInfoD2Ev(ptr noundef nonnull align 8 dereferenceable(1332) %this) unnamed_addr #10 align 2 personality ptr @__gxx_personality_v0 {
entry:
  store ptr getelementptr inbounds ({ [4 x ptr] }, ptr @_ZTVN4absl13cord_internal9CordzInfoE, i64 0, i32 0, i64 2), ptr %this, align 8
  %rep_ = getelementptr inbounds i8, ptr %this, i64 64
  %0 = load ptr, ptr %rep_, align 8
  %tobool.not = icmp eq ptr %0, null
  br i1 %tobool.not, label %if.end, label %if.then

if.then:                                          ; preds = %entry
  %refcount.i = getelementptr inbounds i8, ptr %0, i64 8
  %1 = atomicrmw sub ptr %refcount.i, i32 2 acq_rel, align 4
  %cmp.i.not.i = icmp eq i32 %1, 2
  br i1 %cmp.i.not.i, label %if.then.i, label %if.end

if.then.i:                                        ; preds = %if.then
  invoke void @_ZN4absl13cord_internal7CordRep7DestroyEPS1_(ptr noundef nonnull %0)
          to label %if.end unwind label %terminate.lpad

if.end:                                           ; preds = %if.then, %if.then.i, %entry
  tail call void @_ZN4absl13cord_internal11CordzHandleD2Ev(ptr noundef nonnull align 8 dereferenceable(32) %this) #17
  ret void

terminate.lpad:                                   ; preds = %if.then.i
  %2 = landingpad { ptr, i32 }
          catch ptr null
  %3 = extractvalue { ptr, i32 } %2, 0
  tail call void @__clang_call_terminate(ptr %3) #19
  unreachable
}